; Function Attrs: nounwind uwtable
define hidden noundef nonnull ptr @dom_xpath_objects_new(ptr noundef %0) #1 {
  %2 = getelementptr inbounds i8, ptr %0, i64 32
  %3 = load i32, ptr %2, align 8
  %4 = getelementptr inbounds i8, ptr %0, i64 28
  %5 = load i32, ptr %4, align 4
  %6 = lshr i32 %5, 11
  %.lobit = and i32 %6, 1
  %7 = xor i32 %.lobit, 1
  %8 = sub nsw i32 %3, %7
  %9 = sext i32 %8 to i64
  %10 = shl nsw i64 %9, 4
  %11 = add nsw i64 %10, 112
  %12 = tail call noalias ptr @_emalloc(i64 noundef %11) #17
  tail call void @llvm.memset.p0.i64(ptr noundef nonnull align 1 dereferenceable(56) %12, i8 0, i64 56, i1 false)
  tail call void @php_dom_xpath_callbacks_ctor(ptr noundef %12) #16
  %13 = getelementptr inbounds i8, ptr %12, i64 24
  store i32 1, ptr %13, align 8
  %14 = getelementptr inbounds i8, ptr %12, i64 48
  store ptr @dom_xpath_prop_handlers, ptr %14, align 8
  %15 = getelementptr inbounds i8, ptr %12, i64 56
  tail call void @zend_object_std_init(ptr noundef nonnull %15, ptr noundef %0) #16
  tail call void @object_properties_init(ptr noundef nonnull %15, ptr noundef %0) #16
  ret ptr %15
}